; Function Attrs: nounwind uwtable
define void @vfree(ptr noundef %0) local_unnamed_addr #3 {
  %2 = ptrtoint ptr %0 to i64
  %3 = add i64 %2, -1
  %4 = and i64 %3, -4194304
  %5 = inttoptr i64 %4 to ptr
  %6 = icmp slt i64 %3, 4194304
  %7 = icmp eq i64 %4, 0
  %8 = or i1 %6, %7
  br i1 %8, label %mi_free.exit, label %9, !prof !17

9:                                                ; preds = %1
  %10 = tail call ptr @llvm.thread.pointer()
  %11 = ptrtoint ptr %10 to i64
  %12 = getelementptr inbounds nuw i8, ptr %5, i64 136
  %13 = load atomic i64, ptr %12 monotonic, align 8
  %14 = icmp eq i64 %13, %11
  %15 = sub i64 %2, %4
  %16 = getelementptr inbounds nuw i8, ptr %5, i64 144
  %17 = load i64, ptr %16, align 16, !tbaa !22
  %18 = lshr i64 %15, %17
  %19 = getelementptr inbounds nuw i8, ptr %5, i64 160
  %20 = getelementptr inbounds nuw [1 x %struct.mi_page_s], ptr %19, i64 0, i64 %18
  br i1 %14, label %21, label %35, !prof !8

21:                                               ; preds = %9
  %22 = getelementptr inbounds nuw i8, ptr %20, i64 6
  %23 = load i8, ptr %22, align 2, !tbaa !29
  %24 = icmp eq i8 %23, 0
  br i1 %24, label %25, label %34, !prof !8

25:                                               ; preds = %21
  %26 = getelementptr inbounds nuw i8, ptr %20, i64 16
  %27 = load ptr, ptr %26, align 16, !tbaa !30
  %28 = ptrtoint ptr %27 to i64
  store i64 %28, ptr %0, align 8, !tbaa !18
  store ptr %0, ptr %26, align 16, !tbaa !30
  %29 = getelementptr inbounds nuw i8, ptr %20, i64 24
  %30 = load i16, ptr %29, align 8, !tbaa !20
  %31 = add i16 %30, -1
  store i16 %31, ptr %29, align 8, !tbaa !20
  %32 = icmp eq i16 %31, 0
  br i1 %32, label %33, label %mi_free.exit, !prof !17

33:                                               ; preds = %25
  tail call void @_mi_page_retire(ptr noundef nonnull %20) #19
  br label %mi_free.exit

34:                                               ; preds = %21
  tail call fastcc void @mi_free_generic_local(ptr noundef nonnull %20, ptr noundef %0) #20
  br label %mi_free.exit

35:                                               ; preds = %9
  tail call fastcc void @mi_free_generic_mt(ptr noundef nonnull %20, ptr noundef nonnull %5, ptr noundef %0) #20
  br label %mi_free.exit

mi_free.exit:                                     ; preds = %1, %25, %33, %34, %35
  ret void
}